target datalayout = "e-m:e-p270:32:32-p271:32:32-p272:64:64-i64:64-i128:128-f80:128-n8:16:32:64-S128"
target triple = "x86_64-unknown-linux-gnu"

%class.bit_blaster_rewriter = type { ptr }
%"struct.bit_blaster_rewriter::imp" = type { %class.rewriter_tpl, %class.blaster, %struct.blaster_rewriter_cfg }
%class.rewriter_tpl = type { %class.rewriter_core, ptr, i32, %class.ptr_vector.1, %class.var_shifter, %class.inv_var_shifter, %class.obj_ref, %class.obj_ref.10, %class.obj_ref.10, %class.svector.11 }
%class.rewriter_core = type { ptr, ptr, i8, i8, %class.ptr_vector, ptr, %class.svector, %class.ref_vector, %class.ptr_vector, ptr, %class.ref_vector.3, %class.obj_hashtable, ptr, i32, %class.svector.8 }
%class.svector = type { %class.vector.0 }
%class.vector.0 = type { ptr }
%class.ref_vector = type { %class.ref_vector_core }
%class.ref_vector_core = type { %class.ref_manager_wrapper, %class.ptr_vector.1 }
%class.ref_manager_wrapper = type { ptr }
%class.ptr_vector = type { %class.vector }
%class.vector = type { ptr }
%class.ref_vector.3 = type { %class.ref_vector_core.4 }
%class.ref_vector_core.4 = type { %class.ref_manager_wrapper.5, %class.ptr_vector.6 }
%class.ref_manager_wrapper.5 = type { ptr }
%class.ptr_vector.6 = type { %class.vector.7 }
%class.vector.7 = type { ptr }
%class.obj_hashtable = type { %class.core_hashtable.base, [4 x i8] }
%class.core_hashtable.base = type <{ ptr, i32, i32, i32 }>
%class.svector.8 = type { %class.vector.9 }
%class.vector.9 = type { ptr }
%class.ptr_vector.1 = type { %class.vector.2 }
%class.vector.2 = type { ptr }
%class.var_shifter = type <{ %class.var_shifter_core, i32, i32, i32, [4 x i8] }>
%class.var_shifter_core = type { %class.rewriter_core }
%class.inv_var_shifter = type <{ %class.var_shifter_core, i32, [4 x i8] }>
%class.obj_ref = type { ptr, ptr }
%class.obj_ref.10 = type { ptr, ptr }
%class.svector.11 = type { %class.vector.12 }
%class.vector.12 = type { ptr }
%class.blaster = type { %class.bit_blaster_tpl, %class.bool_rewriter, %class.bv_util }
%class.bit_blaster_tpl = type { %struct.blaster_cfg, i64 }
%struct.blaster_cfg = type { ptr, ptr }
%class.bool_rewriter = type { ptr, i8, i8, i8, i8, i8, i8, i32, i8, i32, i32, i8, %class.ptr_vector.1, %class.ptr_vector.1, %class.svector.11, %class.svector.11 }
%class.bv_util = type { %class.bv_recognizers, ptr, ptr }
%class.bv_recognizers = type { i32 }
%struct.blaster_rewriter_cfg = type { ptr, ptr, %class.ref_vector, %class.ref_vector, %class.ref_vector, %class.obj_map, %class.ref_vector, %class.svector.11, %class.ref_vector.15, %class.ref_vector, %class.svector.11, %class.ref_vector.15, %class.svector.11, i8, i8, i8, i8, i64, i32, i32 }
%class.obj_map = type { %class.core_hashtable.13 }
%class.core_hashtable.13 = type <{ ptr, i32, i32, i32, [4 x i8] }>
%class.ref_vector.15 = type { %class.ref_vector_core.16 }
%class.ref_vector_core.16 = type { %class.ref_manager_wrapper.17, %class.ptr_vector.18 }
%class.ref_manager_wrapper.17 = type { ptr }
%class.ptr_vector.18 = type { %class.vector.19 }
%class.vector.19 = type { ptr }

@.str = private unnamed_addr constant [11 x i8] c"max_memory\00", align 1
@.str.1 = private unnamed_addr constant [10 x i8] c"max_steps\00", align 1
@.str.2 = private unnamed_addr constant [10 x i8] c"blast_add\00", align 1
@.str.3 = private unnamed_addr constant [10 x i8] c"blast_mul\00", align 1
@.str.4 = private unnamed_addr constant [11 x i8] c"blast_full\00", align 1
@.str.5 = private unnamed_addr constant [12 x i8] c"blast_quant\00", align 1

; Function Attrs: mustprogress nounwind uwtable
define linkonce_odr hidden void @_ZN15bit_blaster_tplI11blaster_cfgE14set_max_memoryEy(ptr noundef nonnull align 8 dereferenceable(24) %this, i64 noundef %max_memory) #5 comdat align 2 {
entry:
  %this.addr = alloca ptr, align 8
  %max_memory.addr = alloca i64, align 8
  store ptr %this, ptr %this.addr, align 8
  store i64 %max_memory, ptr %max_memory.addr, align 8
  %this1 = load ptr, ptr %this.addr, align 8
  %0 = load i64, ptr %max_memory.addr, align 8
  %m_max_memory = getelementptr inbounds %class.bit_blaster_tpl, ptr %this1, i32 0, i32 1
  store i64 %0, ptr %m_max_memory, align 8
  ret void
}

; Function Attrs: mustprogress nounwind uwtable
define linkonce_odr hidden noundef i64 @_Z18megabytes_to_bytesj(i32 noundef %mb) #5 comdat {
entry:
  %retval = alloca i64, align 8
  %mb.addr = alloca i32, align 4
  %b = alloca i64, align 8
  %r = alloca i64, align 8
  store i32 %mb, ptr %mb.addr, align 4
  %0 = load i32, ptr %mb.addr, align 4
  %cmp = icmp eq i32 %0, -1
  br i1 %cmp, label %if.then, label %if.end

if.then:                                          ; preds = %entry
  store i64 -1, ptr %retval, align 8
  br label %return

if.end:                                           ; preds = %entry
  %1 = load i32, ptr %mb.addr, align 4
  %conv = zext i32 %1 to i64
  %mul = mul i64 %conv, 1024
  %mul1 = mul i64 %mul, 1024
  store i64 %mul1, ptr %b, align 8
  %2 = load i64, ptr %b, align 8
  store i64 %2, ptr %r, align 8
  %3 = load i64, ptr %r, align 8
  %4 = load i64, ptr %b, align 8
  %cmp2 = icmp ne i64 %3, %4
  br i1 %cmp2, label %if.then3, label %if.end4

if.then3:                                         ; preds = %if.end
  store i64 -1, ptr %r, align 8
  br label %if.end4

if.end4:                                          ; preds = %if.then3, %if.end
  %5 = load i64, ptr %r, align 8
  store i64 %5, ptr %retval, align 8
  br label %return

return:                                           ; preds = %if.end4, %if.then
  %6 = load i64, ptr %retval, align 8
  ret i64 %6
}

; Function Attrs: mustprogress uwtable
define linkonce_odr hidden void @_ZN20blaster_rewriter_cfg11updt_paramsERK10params_ref(ptr noundef nonnull align 8 dereferenceable(200) %this, ptr noundef nonnull align 8 dereferenceable(8) %p) #4 comdat align 2 {
entry:
  %this.addr = alloca ptr, align 8
  %p.addr = alloca ptr, align 8
  store ptr %this, ptr %this.addr, align 8
  store ptr %p, ptr %p.addr, align 8
  %this1 = load ptr, ptr %this.addr, align 8
  %0 = load ptr, ptr %p.addr, align 8
  %call = call noundef i32 @_ZNK10params_ref8get_uintEPKcj(ptr noundef nonnull align 8 dereferenceable(8) %0, ptr noundef @.str, i32 noundef -1)
  %call2 = call noundef i64 @_Z18megabytes_to_bytesj(i32 noundef %call)
  %m_max_memory = getelementptr inbounds %struct.blaster_rewriter_cfg, ptr %this1, i32 0, i32 17
  store i64 %call2, ptr %m_max_memory, align 8
  %1 = load ptr, ptr %p.addr, align 8
  %call3 = call noundef i32 @_ZNK10params_ref8get_uintEPKcj(ptr noundef nonnull align 8 dereferenceable(8) %1, ptr noundef @.str.1, i32 noundef -1)
  %m_max_steps = getelementptr inbounds %struct.blaster_rewriter_cfg, ptr %this1, i32 0, i32 18
  store i32 %call3, ptr %m_max_steps, align 8
  %2 = load ptr, ptr %p.addr, align 8
  %call4 = call noundef zeroext i1 @_ZNK10params_ref8get_boolEPKcb(ptr noundef nonnull align 8 dereferenceable(8) %2, ptr noundef @.str.2, i1 noundef zeroext true)
  %m_blast_add = getelementptr inbounds %struct.blaster_rewriter_cfg, ptr %this1, i32 0, i32 14
  %frombool = zext i1 %call4 to i8
  store i8 %frombool, ptr %m_blast_add, align 1
  %3 = load ptr, ptr %p.addr, align 8
  %call5 = call noundef zeroext i1 @_ZNK10params_ref8get_boolEPKcb(ptr noundef nonnull align 8 dereferenceable(8) %3, ptr noundef @.str.3, i1 noundef zeroext true)
  %m_blast_mul = getelementptr inbounds %struct.blaster_rewriter_cfg, ptr %this1, i32 0, i32 13
  %frombool6 = zext i1 %call5 to i8
  store i8 %frombool6, ptr %m_blast_mul, align 8
  %4 = load ptr, ptr %p.addr, align 8
  %call7 = call noundef zeroext i1 @_ZNK10params_ref8get_boolEPKcb(ptr noundef nonnull align 8 dereferenceable(8) %4, ptr noundef @.str.4, i1 noundef zeroext false)
  %m_blast_full = getelementptr inbounds %struct.blaster_rewriter_cfg, ptr %this1, i32 0, i32 16
  %frombool8 = zext i1 %call7 to i8
  store i8 %frombool8, ptr %m_blast_full, align 1
  %5 = load ptr, ptr %p.addr, align 8
  %call9 = call noundef zeroext i1 @_ZNK10params_ref8get_boolEPKcb(ptr noundef nonnull align 8 dereferenceable(8) %5, ptr noundef @.str.5, i1 noundef zeroext false)
  %m_blast_quant = getelementptr inbounds %struct.blaster_rewriter_cfg, ptr %this1, i32 0, i32 15
  %frombool10 = zext i1 %call9 to i8
  store i8 %frombool10, ptr %m_blast_quant, align 2
  %m_blaster = getelementptr inbounds %struct.blaster_rewriter_cfg, ptr %this1, i32 0, i32 1
  %6 = load ptr, ptr %m_blaster, align 8
  %m_max_memory11 = getelementptr inbounds %struct.blaster_rewriter_cfg, ptr %this1, i32 0, i32 17
  %7 = load i64, ptr %m_max_memory11, align 8
  call void @_ZN15bit_blaster_tplI11blaster_cfgE14set_max_memoryEy(ptr noundef nonnull align 8 dereferenceable(24) %6, i64 noundef %7)
  ret void
}

; Function Attrs: mustprogress uwtable
define hidden void @_ZN20bit_blaster_rewriter11updt_paramsERK10params_ref(ptr noundef nonnull align 8 dereferenceable(8) %this, ptr noundef nonnull align 8 dereferenceable(8) %p) #4 align 2 {
entry:
  %this.addr = alloca ptr, align 8
  %p.addr = alloca ptr, align 8
  store ptr %this, ptr %this.addr, align 8
  store ptr %p, ptr %p.addr, align 8
  %this1 = load ptr, ptr %this.addr, align 8
  %m_imp = getelementptr inbounds %class.bit_blaster_rewriter, ptr %this1, i32 0, i32 0
  %0 = load ptr, ptr %m_imp, align 8
  %m_cfg = getelementptr inbounds %"struct.bit_blaster_rewriter::imp", ptr %0, i32 0, i32 2
  %1 = load ptr, ptr %p.addr, align 8
  call void @_ZN20blaster_rewriter_cfg11updt_paramsERK10params_ref(ptr noundef nonnull align 8 dereferenceable(200) %m_cfg, ptr noundef nonnull align 8 dereferenceable(8) %1)
  ret void
}