; Function Attrs: mustprogress uwtable
define hidden void @_ZN20bit_blaster_rewriter11updt_paramsERK10params_ref(ptr nocapture noundef nonnull readonly align 8 dereferenceable(8) %this, ptr noundef nonnull align 8 dereferenceable(8) %p) local_unnamed_addr #3 align 2 {
entry:
  %0 = load ptr, ptr %this, align 8
  %call.i = tail call noundef i32 @_ZNK10params_ref8get_uintEPKcj(ptr noundef nonnull align 8 dereferenceable(8) %p, ptr noundef nonnull @.str, i32 noundef -1)
  %cmp.i.i = icmp eq i32 %call.i, -1
  %conv.i.i = zext i32 %call.i to i64
  %mul1.i.i = shl nuw nsw i64 %conv.i.i, 20
  %retval.0.i.i = select i1 %cmp.i.i, i64 -1, i64 %mul1.i.i
  %m_max_memory.i = getelementptr inbounds i8, ptr %0, i64 840
  store i64 %retval.0.i.i, ptr %m_max_memory.i, align 8
  %call3.i = tail call noundef i32 @_ZNK10params_ref8get_uintEPKcj(ptr noundef nonnull align 8 dereferenceable(8) %p, ptr noundef nonnull @.str.1, i32 noundef -1)
  %m_max_steps.i = getelementptr inbounds i8, ptr %0, i64 848
  store i32 %call3.i, ptr %m_max_steps.i, align 8
  %call4.i = tail call noundef zeroext i1 @_ZNK10params_ref8get_boolEPKcb(ptr noundef nonnull align 8 dereferenceable(8) %p, ptr noundef nonnull @.str.2, i1 noundef zeroext true)
  %m_blast_add.i = getelementptr inbounds i8, ptr %0, i64 833
  %frombool.i = zext i1 %call4.i to i8
  store i8 %frombool.i, ptr %m_blast_add.i, align 1
  %call5.i = tail call noundef zeroext i1 @_ZNK10params_ref8get_boolEPKcb(ptr noundef nonnull align 8 dereferenceable(8) %p, ptr noundef nonnull @.str.3, i1 noundef zeroext true)
  %m_blast_mul.i = getelementptr inbounds i8, ptr %0, i64 832
  %frombool6.i = zext i1 %call5.i to i8
  store i8 %frombool6.i, ptr %m_blast_mul.i, align 8
  %call7.i = tail call noundef zeroext i1 @_ZNK10params_ref8get_boolEPKcb(ptr noundef nonnull align 8 dereferenceable(8) %p, ptr noundef nonnull @.str.4, i1 noundef zeroext false)
  %m_blast_full.i = getelementptr inbounds i8, ptr %0, i64 835
  %frombool8.i = zext i1 %call7.i to i8
  store i8 %frombool8.i, ptr %m_blast_full.i, align 1
  %call9.i = tail call noundef zeroext i1 @_ZNK10params_ref8get_boolEPKcb(ptr noundef nonnull align 8 dereferenceable(8) %p, ptr noundef nonnull @.str.5, i1 noundef zeroext false)
  %m_blast_quant.i = getelementptr inbounds i8, ptr %0, i64 834
  %frombool10.i = zext i1 %call9.i to i8
  store i8 %frombool10.i, ptr %m_blast_quant.i, align 2
  %m_blaster.i = getelementptr inbounds i8, ptr %0, i64 664
  %1 = load ptr, ptr %m_blaster.i, align 8
  %2 = load i64, ptr %m_max_memory.i, align 8
  %m_max_memory.i.i = getelementptr inbounds i8, ptr %1, i64 16
  store i64 %2, ptr %m_max_memory.i.i, align 8
  ret void
}